target datalayout = "e-m:e-p270:32:32-p271:32:32-p272:64:64-i64:64-i128:128-f80:128-n8:16:32:64-S128"
target triple = "x86_64-pc-linux-gnu"

%"class.std::filesystem::__cxx11::path" = type { %"class.std::__cxx11::basic_string", %"struct.std::filesystem::__cxx11::path::_List" }
%"class.std::__cxx11::basic_string" = type { %"struct.std::__cxx11::basic_string<char>::_Alloc_hider", i64, %union.anon.3 }
%"struct.std::__cxx11::basic_string<char>::_Alloc_hider" = type { ptr }
%union.anon.3 = type { i64, [8 x i8] }
%"struct.std::filesystem::__cxx11::path::_List" = type { %"class.std::unique_ptr" }
%"class.std::unique_ptr" = type { %"struct.std::__uniq_ptr_data" }
%"struct.std::__uniq_ptr_data" = type { %"class.std::__uniq_ptr_impl" }
%"class.std::__uniq_ptr_impl" = type { %"class.std::tuple" }
%"class.std::tuple" = type { %"struct.std::_Tuple_impl" }
%"struct.std::_Tuple_impl" = type { %"struct.std::_Head_base.5" }
%"struct.std::_Head_base.5" = type { ptr }
%"class.gmx::ArrayRef.67" = type { %"struct.gmx::ArrayRefIter.68", %"struct.gmx::ArrayRefIter.68" }
%"struct.gmx::ArrayRefIter.68" = type { ptr }

@.str.31 = private unnamed_addr constant [124 x i8] c"generated/home/dtcxzyw/WorkSpace/Projects/compilers/llvm-opt-benchmark/bench/gromacs/gromacs/src/gromacs/tools/make_ndx.cpp\00", align 1
@_ZL5bCase = internal global i8 0, align 1
@.str.146 = private unnamed_addr constant [19 x i8] c"To many names: %d\0A\00", align 1
@.str.147 = private unnamed_addr constant [48 x i8] c"Name is too long, the maximum is %d characters\0A\00", align 1
@.str.148 = private unnamed_addr constant [5 x i8] c" !&|\00", align 1

; Function Attrs: mustprogress nounwind uwtable
define linkonce_odr noundef nonnull align 8 dereferenceable(8) ptr @_ZNK3gmx12ArrayRefIterIPcEdeEv(ptr noundef nonnull align 8 dereferenceable(8) %0) #4 comdat align 2 {
  %2 = alloca ptr, align 8
  store ptr %0, ptr %2, align 8, !tbaa !302
  %3 = load ptr, ptr %2, align 8
  %4 = getelementptr inbounds nuw %"struct.gmx::ArrayRefIter.68", ptr %3, i32 0, i32 0
  %5 = load ptr, ptr %4, align 8, !tbaa !304
  ret ptr %5
}

; Function Attrs: mustprogress nounwind uwtable
define linkonce_odr noundef nonnull align 8 dereferenceable(8) ptr @_ZN3gmx12ArrayRefIterIPcEpLEl(ptr noundef nonnull align 8 dereferenceable(8) %0, i64 noundef %1) #4 comdat align 2 {
  %3 = alloca ptr, align 8
  %4 = alloca i64, align 8
  store ptr %0, ptr %3, align 8, !tbaa !302
  store i64 %1, ptr %4, align 8, !tbaa !62
  %5 = load ptr, ptr %3, align 8
  %6 = load i64, ptr %4, align 8, !tbaa !62
  %7 = getelementptr inbounds nuw %"struct.gmx::ArrayRefIter.68", ptr %5, i32 0, i32 0
  %8 = load ptr, ptr %7, align 8, !tbaa !304
  %9 = getelementptr inbounds ptr, ptr %8, i64 %6
  store ptr %9, ptr %7, align 8, !tbaa !304
  ret ptr %5
}

; Function Attrs: mustprogress nounwind uwtable
define linkonce_odr noundef nonnull align 8 dereferenceable(8) ptr @_ZNK3gmx5boost14stl_interfaces2v118iterator_interfaceINS_12ArrayRefIterIPcEESt26random_access_iterator_tagS5_RS5_PS5_lvE7derivedEv(ptr noundef nonnull align 1 dereferenceable(1) %0) #4 comdat align 2 {
  %2 = alloca ptr, align 8
  store ptr %0, ptr %2, align 8, !tbaa !307
  %3 = load ptr, ptr %2, align 8
  ret ptr %3
}

; Function Attrs: mustprogress nounwind uwtable
define linkonce_odr noundef nonnull align 8 dereferenceable(8) ptr @_ZNK3gmx5boost14stl_interfaces2v118iterator_interfaceINS_12ArrayRefIterIPcEESt26random_access_iterator_tagS5_RS5_PS5_lvEixIS6_EEDTcmpLclsr3stdE7declvalIRT_EEfp_declsr3stdE7declvalISD_EEEl(ptr noundef nonnull align 1 dereferenceable(1) %0, i64 noundef %1) #4 comdat align 2 {
  %3 = alloca ptr, align 8
  %4 = alloca i64, align 8
  %5 = alloca %"struct.gmx::ArrayRefIter.68", align 8
  store ptr %0, ptr %3, align 8, !tbaa !307
  store i64 %1, ptr %4, align 8, !tbaa !62
  %6 = load ptr, ptr %3, align 8
  call void @llvm.lifetime.start.p0(i64 8, ptr %5) #19
  %7 = call noundef nonnull align 8 dereferenceable(8) ptr @_ZNK3gmx5boost14stl_interfaces2v118iterator_interfaceINS_12ArrayRefIterIPcEESt26random_access_iterator_tagS5_RS5_PS5_lvE7derivedEv(ptr noundef nonnull align 1 dereferenceable(1) %6) #19
  call void @llvm.memcpy.p0.p0.i64(ptr align 8 %5, ptr align 8 %7, i64 8, i1 false)
  %8 = load i64, ptr %4, align 8, !tbaa !62
  %9 = call noundef nonnull align 8 dereferenceable(8) ptr @_ZN3gmx12ArrayRefIterIPcEpLEl(ptr noundef nonnull align 8 dereferenceable(8) %5, i64 noundef %8) #19
  %10 = call noundef nonnull align 8 dereferenceable(8) ptr @_ZNK3gmx12ArrayRefIterIPcEdeEv(ptr noundef nonnull align 8 dereferenceable(8) %5) #19
  call void @llvm.lifetime.end.p0(i64 8, ptr %5) #19
  ret ptr %10
}

; Function Attrs: mustprogress nounwind uwtable
define linkonce_odr noundef nonnull align 8 dereferenceable(8) ptr @_ZNK3gmx8ArrayRefIPcEixEm(ptr noundef nonnull align 8 dereferenceable(16) %0, i64 noundef %1) #4 comdat align 2 {
  %3 = alloca ptr, align 8
  %4 = alloca i64, align 8
  store ptr %0, ptr %3, align 8, !tbaa !253
  store i64 %1, ptr %4, align 8, !tbaa !62
  %5 = load ptr, ptr %3, align 8
  %6 = getelementptr inbounds nuw %"class.gmx::ArrayRef.67", ptr %5, i32 0, i32 0
  %7 = load i64, ptr %4, align 8, !tbaa !62
  %8 = call noundef nonnull align 8 dereferenceable(8) ptr @_ZNK3gmx5boost14stl_interfaces2v118iterator_interfaceINS_12ArrayRefIterIPcEESt26random_access_iterator_tagS5_RS5_PS5_lvEixIS6_EEDTcmpLclsr3stdE7declvalIRT_EEfp_declsr3stdE7declvalISD_EEEl(ptr noundef nonnull align 1 dereferenceable(1) %6, i64 noundef %7) #19
  ret ptr %8
}

; Function Attrs: mustprogress nounwind uwtable
define internal noundef zeroext i1 @_ZL12is_name_charc(i8 noundef signext %0) #4 {
  %2 = alloca i8, align 1
  %3 = alloca ptr, align 8
  store i8 %0, ptr %2, align 1, !tbaa !91
  call void @llvm.lifetime.start.p0(i64 8, ptr %3) #19
  store ptr @.str.148, ptr %3, align 8, !tbaa !24
  %4 = load i8, ptr %2, align 1, !tbaa !91
  %5 = sext i8 %4 to i32
  %6 = icmp ne i32 %5, 0
  br i1 %6, label %7, label %13

7:                                                ; preds = %1
  %8 = load ptr, ptr %3, align 8, !tbaa !24
  %9 = load i8, ptr %2, align 1, !tbaa !91
  %10 = sext i8 %9 to i32
  %11 = call noundef ptr @strchr(ptr noundef %8, i32 noundef %10) #23
  %12 = icmp eq ptr %11, null
  br label %13

13:                                               ; preds = %7, %1
  %14 = phi i1 [ false, %1 ], [ %12, %7 ]
  call void @llvm.lifetime.end.p0(i64 8, ptr %3) #19
  ret i1 %14
}

; Function Attrs: mustprogress uwtable
define internal noundef i32 @_ZL11parse_namesPPcPiN3gmx8ArrayRefIS_EE(ptr noundef %0, ptr noundef %1, ptr %2, ptr %3) #0 personality ptr @__gxx_personality_v0 {
  %5 = alloca i32, align 4
  %6 = alloca %"class.gmx::ArrayRef.67", align 8
  %7 = alloca ptr, align 8
  %8 = alloca ptr, align 8
  %9 = alloca i32, align 4
  %10 = alloca %"class.std::filesystem::__cxx11::path", align 8
  %11 = alloca ptr, align 8
  %12 = alloca i32, align 4
  %13 = alloca i32, align 4
  %14 = getelementptr inbounds nuw { ptr, ptr }, ptr %6, i32 0, i32 0
  store ptr %2, ptr %14, align 8
  %15 = getelementptr inbounds nuw { ptr, ptr }, ptr %6, i32 0, i32 1
  store ptr %3, ptr %15, align 8
  store ptr %0, ptr %7, align 8, !tbaa !8
  store ptr %1, ptr %8, align 8, !tbaa !97
  call void @llvm.lifetime.start.p0(i64 4, ptr %9) #19
  %16 = load ptr, ptr %8, align 8, !tbaa !97
  store i32 0, ptr %16, align 4, !tbaa !4
  br label %17

17:                                               ; preds = %112, %4
  %18 = load ptr, ptr %7, align 8, !tbaa !8
  %19 = load ptr, ptr %18, align 8, !tbaa !24
  %20 = getelementptr inbounds i8, ptr %19, i64 0
  %21 = load i8, ptr %20, align 1, !tbaa !91
  %22 = call noundef zeroext i1 @_ZL12is_name_charc(i8 noundef signext %21)
  br i1 %22, label %30, label %23

23:                                               ; preds = %17
  %24 = load ptr, ptr %7, align 8, !tbaa !8
  %25 = load ptr, ptr %24, align 8, !tbaa !24
  %26 = getelementptr inbounds i8, ptr %25, i64 0
  %27 = load i8, ptr %26, align 1, !tbaa !91
  %28 = sext i8 %27 to i32
  %29 = icmp eq i32 %28, 32
  br label %30

30:                                               ; preds = %23, %17
  %31 = phi i1 [ true, %17 ], [ %29, %23 ]
  br i1 %31, label %32, label %113

32:                                               ; preds = %30
  %33 = load ptr, ptr %7, align 8, !tbaa !8
  %34 = load ptr, ptr %33, align 8, !tbaa !24
  %35 = getelementptr inbounds i8, ptr %34, i64 0
  %36 = load i8, ptr %35, align 1, !tbaa !91
  %37 = call noundef zeroext i1 @_ZL12is_name_charc(i8 noundef signext %36)
  br i1 %37, label %38, label %108

38:                                               ; preds = %32
  %39 = load ptr, ptr %8, align 8, !tbaa !97
  %40 = load i32, ptr %39, align 4, !tbaa !4
  %41 = icmp sge i32 %40, 1024
  br i1 %41, label %42, label %51

42:                                               ; preds = %38
  call void @llvm.lifetime.start.p0(i64 40, ptr %10) #19
  call void @_ZNSt10filesystem7__cxx114pathC2IA124_cS1_EERKT_NS1_6formatE(ptr noundef nonnull align 8 dereferenceable(40) %10, ptr noundef nonnull align 1 dereferenceable(124) @.str.31, i8 noundef zeroext 2)
  %43 = load ptr, ptr %8, align 8, !tbaa !97
  %44 = load i32, ptr %43, align 4, !tbaa !4
  %45 = add nsw i32 %44, 1
  invoke void (i32, ptr, i32, ptr, ...) @_Z9gmx_fataliRKNSt10filesystem7__cxx114pathEiPKcz(i32 noundef 0, ptr noundef nonnull align 8 dereferenceable(40) %10, i32 noundef 183, ptr noundef @.str.146, i32 noundef %45) #20
          to label %46 unwind label %47

46:                                               ; preds = %42
  unreachable

47:                                               ; preds = %42
  %48 = landingpad { ptr, i32 }
          cleanup
  %49 = extractvalue { ptr, i32 } %48, 0
  store ptr %49, ptr %11, align 8
  %50 = extractvalue { ptr, i32 } %48, 1
  store i32 %50, ptr %12, align 4
  call void @_ZNSt10filesystem7__cxx114pathD2Ev(ptr noundef nonnull align 8 dereferenceable(40) %10) #19
  call void @llvm.lifetime.end.p0(i64 40, ptr %10) #19
  call void @llvm.lifetime.end.p0(i64 4, ptr %9) #19
  br label %118

51:                                               ; preds = %38
  store i32 0, ptr %9, align 4, !tbaa !4
  br label %52

52:                                               ; preds = %81, %51
  %53 = load ptr, ptr %7, align 8, !tbaa !8
  %54 = load ptr, ptr %53, align 8, !tbaa !24
  %55 = load i32, ptr %9, align 4, !tbaa !4
  %56 = sext i32 %55 to i64
  %57 = getelementptr inbounds i8, ptr %54, i64 %56
  %58 = load i8, ptr %57, align 1, !tbaa !91
  %59 = call noundef zeroext i1 @_ZL12is_name_charc(i8 noundef signext %58)
  br i1 %59, label %60, label %82

60:                                               ; preds = %52
  %61 = load ptr, ptr %7, align 8, !tbaa !8
  %62 = load ptr, ptr %61, align 8, !tbaa !24
  %63 = load i32, ptr %9, align 4, !tbaa !4
  %64 = sext i32 %63 to i64
  %65 = getelementptr inbounds i8, ptr %62, i64 %64
  %66 = load i8, ptr %65, align 1, !tbaa !91
  %67 = load ptr, ptr %8, align 8, !tbaa !97
  %68 = load i32, ptr %67, align 4, !tbaa !4
  %69 = sext i32 %68 to i64
  %70 = call noundef nonnull align 8 dereferenceable(8) ptr @_ZNK3gmx8ArrayRefIPcEixEm(ptr noundef nonnull align 8 dereferenceable(16) %6, i64 noundef %69)
  %71 = load ptr, ptr %70, align 8, !tbaa !24
  %72 = load i32, ptr %9, align 4, !tbaa !4
  %73 = sext i32 %72 to i64
  %74 = getelementptr inbounds i8, ptr %71, i64 %73
  store i8 %66, ptr %74, align 1, !tbaa !91
  %75 = load i32, ptr %9, align 4, !tbaa !4
  %76 = add nsw i32 %75, 1
  store i32 %76, ptr %9, align 4, !tbaa !4
  %77 = load i32, ptr %9, align 4, !tbaa !4
  %78 = icmp sgt i32 %77, 1024
  br i1 %78, label %79, label %81

79:                                               ; preds = %60
  %80 = call i32 (ptr, ...) @printf(ptr noundef @.str.147, i32 noundef 1024)
  store i32 0, ptr %5, align 4
  store i32 1, ptr %13, align 4
  br label %116

81:                                               ; preds = %60
  br label %52, !llvm.loop !275

82:                                               ; preds = %52
  %83 = load ptr, ptr %8, align 8, !tbaa !97
  %84 = load i32, ptr %83, align 4, !tbaa !4
  %85 = sext i32 %84 to i64
  %86 = call noundef nonnull align 8 dereferenceable(8) ptr @_ZNK3gmx8ArrayRefIPcEixEm(ptr noundef nonnull align 8 dereferenceable(16) %6, i64 noundef %85)
  %87 = load ptr, ptr %86, align 8, !tbaa !24
  %88 = load i32, ptr %9, align 4, !tbaa !4
  %89 = sext i32 %88 to i64
  %90 = getelementptr inbounds i8, ptr %87, i64 %89
  store i8 0, ptr %90, align 1, !tbaa !91
  %91 = load i8, ptr @_ZL5bCase, align 1, !tbaa !25, !range !47, !noundef !48
  %92 = trunc i8 %91 to i1
  br i1 %92, label %99, label %93

93:                                               ; preds = %82
  %94 = load ptr, ptr %8, align 8, !tbaa !97
  %95 = load i32, ptr %94, align 4, !tbaa !4
  %96 = sext i32 %95 to i64
  %97 = call noundef nonnull align 8 dereferenceable(8) ptr @_ZNK3gmx8ArrayRefIPcEixEm(ptr noundef nonnull align 8 dereferenceable(16) %6, i64 noundef %96)
  %98 = load ptr, ptr %97, align 8, !tbaa !24
  call void @_Z8upstringPc(ptr noundef %98)
  br label %99

99:                                               ; preds = %93, %82
  %100 = load i32, ptr %9, align 4, !tbaa !4
  %101 = load ptr, ptr %7, align 8, !tbaa !8
  %102 = load ptr, ptr %101, align 8, !tbaa !24
  %103 = sext i32 %100 to i64
  %104 = getelementptr inbounds i8, ptr %102, i64 %103
  store ptr %104, ptr %101, align 8, !tbaa !24
  %105 = load ptr, ptr %8, align 8, !tbaa !97
  %106 = load i32, ptr %105, align 4, !tbaa !4
  %107 = add nsw i32 %106, 1
  store i32 %107, ptr %105, align 4, !tbaa !4
  br label %112

108:                                              ; preds = %32
  %109 = load ptr, ptr %7, align 8, !tbaa !8
  %110 = load ptr, ptr %109, align 8, !tbaa !24
  %111 = getelementptr inbounds nuw i8, ptr %110, i32 1
  store ptr %111, ptr %109, align 8, !tbaa !24
  br label %112

112:                                              ; preds = %108, %99
  br label %17, !llvm.loop !276

113:                                              ; preds = %30
  %114 = load ptr, ptr %8, align 8, !tbaa !97
  %115 = load i32, ptr %114, align 4, !tbaa !4
  store i32 %115, ptr %5, align 4
  store i32 1, ptr %13, align 4
  br label %116

116:                                              ; preds = %113, %79
  call void @llvm.lifetime.end.p0(i64 4, ptr %9) #19
  %117 = load i32, ptr %5, align 4
  ret i32 %117

118:                                              ; preds = %47
  %119 = load ptr, ptr %11, align 8
  %120 = load i32, ptr %12, align 4
  %121 = insertvalue { ptr, i32 } poison, ptr %119, 0
  %122 = insertvalue { ptr, i32 } %121, i32 %120, 1
  resume { ptr, i32 } %122
}