; Function Attrs: mustprogress uwtable
define internal fastcc noundef i32 @_ZL11parse_namesPPcPiN3gmx8ArrayRefIS_EE(ptr noundef nonnull captures(none) %0, ptr noundef nonnull captures(none) initializes((0, 4)) %1, ptr readonly captures(none) %2) unnamed_addr #0 personality ptr @__gxx_personality_v0 {
  %4 = alloca %"class.std::filesystem::__cxx11::path", align 8
  store i32 0, ptr %1, align 4, !tbaa !4
  %5 = load ptr, ptr %0, align 8, !tbaa !21
  %6 = load i8, ptr %5, align 1, !tbaa !32
  %.not.i35 = icmp eq i8 %6, 0
  br i1 %.not.i35, label %.thread, label %_ZL12is_name_charc.exit

_ZL12is_name_charc.exit:                          ; preds = %3, %52
  %7 = phi i32 [ %54, %52 ], [ 0, %3 ]
  %8 = phi i8 [ %55, %52 ], [ %6, %3 ]
  %9 = phi ptr [ %53, %52 ], [ %5, %3 ]
  %10 = sext i8 %8 to i32
  %memchr.i = tail call ptr @memchr(ptr noundef nonnull dereferenceable(1) @.str.148, i32 %10, i64 5)
  %11 = icmp eq ptr %memchr.i, null
  %12 = icmp eq i8 %8, 32
  %or.cond = or i1 %12, %11
  br i1 %or.cond, label %_ZL12is_name_charc.exit28, label %.thread

_ZL12is_name_charc.exit28:                        ; preds = %_ZL12is_name_charc.exit
  br i1 %11, label %13, label %50

13:                                               ; preds = %_ZL12is_name_charc.exit28
  %14 = icmp sgt i32 %7, 1023
  br i1 %14, label %15, label %.preheader

15:                                               ; preds = %13
  call void @llvm.lifetime.start.p0(i64 40, ptr nonnull %4) #27
  call void @_ZNSt10filesystem7__cxx114pathC2IA124_cS1_EERKT_NS1_6formatE(ptr noundef nonnull align 8 dereferenceable(40) %4, ptr noundef nonnull align 1 dereferenceable(124) @.str.31, i8 noundef zeroext 2)
  %16 = load i32, ptr %1, align 4, !tbaa !4
  %17 = add nsw i32 %16, 1
  invoke void (i32, ptr, i32, ptr, ...) @_Z9gmx_fataliRKNSt10filesystem7__cxx114pathEiPKcz(i32 noundef 0, ptr noundef nonnull align 8 dereferenceable(40) %4, i32 noundef 183, ptr noundef nonnull @.str.146, i32 noundef %17) #28
          to label %18 unwind label %19

18:                                               ; preds = %15
  unreachable

19:                                               ; preds = %15
  %20 = landingpad { ptr, i32 }
          cleanup
  call void @_ZNSt10filesystem7__cxx114pathD2Ev(ptr noundef nonnull align 8 dereferenceable(40) %4) #27
  call void @llvm.lifetime.end.p0(i64 40, ptr nonnull %4) #27
  resume { ptr, i32 } %20

.preheader:                                       ; preds = %13, %26
  %indvars.iv = phi i64 [ %indvars.iv.next, %26 ], [ 0, %13 ]
  %21 = load ptr, ptr %0, align 8, !tbaa !21
  %22 = getelementptr inbounds nuw i8, ptr %21, i64 %indvars.iv
  %23 = load i8, ptr %22, align 1, !tbaa !32
  %.not.i29 = icmp eq i8 %23, 0
  br i1 %.not.i29, label %.preheader._ZL12is_name_charc.exit31.thread_crit_edge, label %_ZL12is_name_charc.exit31

.preheader._ZL12is_name_charc.exit31.thread_crit_edge: ; preds = %.preheader
  %.pre = load i32, ptr %1, align 4, !tbaa !4
  br label %_ZL12is_name_charc.exit31.thread

_ZL12is_name_charc.exit31:                        ; preds = %.preheader
  %24 = sext i8 %23 to i32
  %memchr.i30 = tail call ptr @memchr(ptr noundef nonnull dereferenceable(1) @.str.148, i32 %24, i64 5)
  %25 = icmp eq ptr %memchr.i30, null
  %.pre38 = load i32, ptr %1, align 4, !tbaa !4
  br i1 %25, label %26, label %_ZL12is_name_charc.exit31.thread

26:                                               ; preds = %_ZL12is_name_charc.exit31
  %27 = sext i32 %.pre38 to i64
  %28 = getelementptr inbounds ptr, ptr %2, i64 %27
  %29 = load ptr, ptr %28, align 8, !tbaa !21
  %30 = getelementptr inbounds nuw i8, ptr %29, i64 %indvars.iv
  store i8 %23, ptr %30, align 1, !tbaa !32
  %indvars.iv.next = add nuw nsw i64 %indvars.iv, 1
  %exitcond = icmp eq i64 %indvars.iv.next, 1025
  br i1 %exitcond, label %31, label %.preheader, !llvm.loop !135

31:                                               ; preds = %26
  %32 = tail call i32 (ptr, ...) @printf(ptr noundef nonnull dereferenceable(1) @.str.147, i32 noundef 1024)
  br label %.thread

_ZL12is_name_charc.exit31.thread:                 ; preds = %_ZL12is_name_charc.exit31, %.preheader._ZL12is_name_charc.exit31.thread_crit_edge
  %33 = phi i32 [ %.pre, %.preheader._ZL12is_name_charc.exit31.thread_crit_edge ], [ %.pre38, %_ZL12is_name_charc.exit31 ]
  %34 = sext i32 %33 to i64
  %35 = getelementptr inbounds ptr, ptr %2, i64 %34
  %36 = load ptr, ptr %35, align 8, !tbaa !21
  %37 = getelementptr inbounds nuw i8, ptr %36, i64 %indvars.iv
  store i8 0, ptr %37, align 1, !tbaa !32
  %38 = load i8, ptr @_ZL5bCase, align 1, !tbaa !22, !range !62, !noundef !63
  %39 = trunc nuw i8 %38 to i1
  br i1 %39, label %45, label %40

40:                                               ; preds = %_ZL12is_name_charc.exit31.thread
  %41 = load i32, ptr %1, align 4, !tbaa !4
  %42 = sext i32 %41 to i64
  %43 = getelementptr inbounds ptr, ptr %2, i64 %42
  %44 = load ptr, ptr %43, align 8, !tbaa !21
  tail call void @_Z8upstringPc(ptr noundef %44)
  br label %45

45:                                               ; preds = %40, %_ZL12is_name_charc.exit31.thread
  %46 = load ptr, ptr %0, align 8, !tbaa !21
  %47 = getelementptr inbounds nuw i8, ptr %46, i64 %indvars.iv
  store ptr %47, ptr %0, align 8, !tbaa !21
  %48 = load i32, ptr %1, align 4, !tbaa !4
  %49 = add nsw i32 %48, 1
  store i32 %49, ptr %1, align 4, !tbaa !4
  br label %52

50:                                               ; preds = %_ZL12is_name_charc.exit28
  %51 = getelementptr inbounds nuw i8, ptr %9, i64 1
  store ptr %51, ptr %0, align 8, !tbaa !21
  br label %52

52:                                               ; preds = %50, %45
  %53 = phi ptr [ %51, %50 ], [ %47, %45 ]
  %54 = phi i32 [ %7, %50 ], [ %49, %45 ]
  %55 = load i8, ptr %53, align 1, !tbaa !32
  %.not.i = icmp eq i8 %55, 0
  br i1 %.not.i, label %.thread, label %_ZL12is_name_charc.exit, !llvm.loop !136

.thread:                                          ; preds = %_ZL12is_name_charc.exit, %52, %3, %31
  %.0 = phi i32 [ 0, %31 ], [ 0, %3 ], [ %54, %52 ], [ %7, %_ZL12is_name_charc.exit ]
  ret i32 %.0
}